target datalayout = "e-m:e-p270:32:32-p271:32:32-p272:64:64-i64:64-i128:128-f80:128-n8:16:32:64-S128"
target triple = "x86_64-pc-linux-gnu"

@bio_err = external global ptr, align 8
@.str.115 = private unnamed_addr constant [17 x i8] c"certificate file\00", align 1
@.str.116 = private unnamed_addr constant [22 x i8] c"parameter error \22%s\22\0A\00", align 1
@.str.117 = private unnamed_addr constant [49 x i8] c"error %s: X.509 store context allocation failed\0A\00", align 1
@.str.118 = private unnamed_addr constant [6 x i8] c"stdin\00", align 1
@vflags = internal global i32 0, align 4
@.str.119 = private unnamed_addr constant [53 x i8] c"error %s: X.509 store context initialization failed\0A\00", align 1
@bio_out = external global ptr, align 8
@.str.120 = private unnamed_addr constant [8 x i8] c"%s: OK\0A\00", align 1
@.str.121 = private unnamed_addr constant [8 x i8] c"Chain:\0A\00", align 1
@.str.122 = private unnamed_addr constant [11 x i8] c"depth=%d: \00", align 1
@stdout = external global ptr, align 8
@.str.123 = private unnamed_addr constant [13 x i8] c" (untrusted)\00", align 1
@.str.124 = private unnamed_addr constant [2 x i8] c"\0A\00", align 1
@.str.125 = private unnamed_addr constant [31 x i8] c"error %s: verification failed\0A\00", align 1

; Function Attrs: inlinehint nounwind uwtable
define internal ptr @ossl_check_const_X509_sk_type(ptr noundef %0) #3 {
  %2 = alloca ptr, align 8
  store ptr %0, ptr %2, align 8, !tbaa !13
  %3 = load ptr, ptr %2, align 8, !tbaa !13
  ret ptr %3
}

; Function Attrs: inlinehint nounwind uwtable
define internal ptr @ossl_check_const_OPENSSL_STRING_sk_type(ptr noundef %0) #3 {
  %2 = alloca ptr, align 8
  store ptr %0, ptr %2, align 8, !tbaa !17
  %3 = load ptr, ptr %2, align 8, !tbaa !17
  ret ptr %3
}

; Function Attrs: nounwind uwtable
define internal i32 @check(ptr noundef %0, ptr noundef %1, ptr noundef %2, ptr noundef %3, ptr noundef %4, i32 noundef %5, ptr noundef %6) #0 {
  %8 = alloca i32, align 4
  %9 = alloca ptr, align 8
  %10 = alloca ptr, align 8
  %11 = alloca ptr, align 8
  %12 = alloca ptr, align 8
  %13 = alloca ptr, align 8
  %14 = alloca i32, align 4
  %15 = alloca ptr, align 8
  %16 = alloca ptr, align 8
  %17 = alloca i32, align 4
  %18 = alloca i32, align 4
  %19 = alloca ptr, align 8
  %20 = alloca ptr, align 8
  %21 = alloca i32, align 4
  %22 = alloca ptr, align 8
  %23 = alloca i32, align 4
  %24 = alloca i32, align 4
  %25 = alloca ptr, align 8
  store ptr %0, ptr %9, align 8, !tbaa !19
  store ptr %1, ptr %10, align 8, !tbaa !23
  store ptr %2, ptr %11, align 8, !tbaa !13
  store ptr %3, ptr %12, align 8, !tbaa !13
  store ptr %4, ptr %13, align 8, !tbaa !15
  store i32 %5, ptr %14, align 4, !tbaa !4
  store ptr %6, ptr %15, align 8, !tbaa !17
  call void @llvm.lifetime.start.p0(i64 8, ptr %16) #4
  store ptr null, ptr %16, align 8, !tbaa !36
  call void @llvm.lifetime.start.p0(i64 4, ptr %17) #4
  store i32 0, ptr %17, align 4, !tbaa !4
  call void @llvm.lifetime.start.p0(i64 4, ptr %18) #4
  store i32 0, ptr %18, align 4, !tbaa !4
  call void @llvm.lifetime.start.p0(i64 8, ptr %19) #4
  call void @llvm.lifetime.start.p0(i64 8, ptr %20) #4
  store ptr null, ptr %20, align 8, !tbaa !13
  call void @llvm.lifetime.start.p0(i64 4, ptr %21) #4
  %26 = load ptr, ptr %10, align 8, !tbaa !23
  %27 = call ptr @load_cert_pass(ptr noundef %26, i32 noundef 0, i32 noundef 1, ptr noundef null, ptr noundef @.str.115)
  store ptr %27, ptr %16, align 8, !tbaa !36
  %28 = load ptr, ptr %16, align 8, !tbaa !36
  %29 = icmp eq ptr %28, null
  br i1 %29, label %30, label %31

30:                                               ; preds = %7
  br label %186

31:                                               ; preds = %7
  %32 = load ptr, ptr %15, align 8, !tbaa !17
  %33 = icmp ne ptr %32, null
  br i1 %33, label %34, label %64

34:                                               ; preds = %31
  store i32 0, ptr %17, align 4, !tbaa !4
  br label %35

35:                                               ; preds = %60, %34
  %36 = load i32, ptr %17, align 4, !tbaa !4
  %37 = load ptr, ptr %15, align 8, !tbaa !17
  %38 = call ptr @ossl_check_const_OPENSSL_STRING_sk_type(ptr noundef %37)
  %39 = call i32 @OPENSSL_sk_num(ptr noundef %38)
  %40 = icmp slt i32 %36, %39
  br i1 %40, label %41, label %63

41:                                               ; preds = %35
  call void @llvm.lifetime.start.p0(i64 8, ptr %22) #4
  %42 = load ptr, ptr %15, align 8, !tbaa !17
  %43 = call ptr @ossl_check_const_OPENSSL_STRING_sk_type(ptr noundef %42)
  %44 = load i32, ptr %17, align 4, !tbaa !4
  %45 = call ptr @OPENSSL_sk_value(ptr noundef %43, i32 noundef %44)
  store ptr %45, ptr %22, align 8, !tbaa !23
  %46 = load ptr, ptr %16, align 8, !tbaa !36
  %47 = load ptr, ptr %22, align 8, !tbaa !23
  %48 = call i32 @x509_ctrl_string(ptr noundef %46, ptr noundef %47)
  %49 = icmp sle i32 %48, 0
  br i1 %49, label %50, label %56

50:                                               ; preds = %41
  %51 = load ptr, ptr @bio_err, align 8, !tbaa !25
  %52 = load ptr, ptr %22, align 8, !tbaa !23
  %53 = call i32 (ptr, ptr, ...) @BIO_printf(ptr noundef %51, ptr noundef @.str.116, ptr noundef %52)
  %54 = load ptr, ptr @bio_err, align 8, !tbaa !25
  call void @ERR_print_errors(ptr noundef %54)
  %55 = load ptr, ptr %16, align 8, !tbaa !36
  call void @X509_free(ptr noundef %55)
  store i32 0, ptr %8, align 4
  store i32 1, ptr %23, align 4
  br label %57

56:                                               ; preds = %41
  store i32 0, ptr %23, align 4
  br label %57

57:                                               ; preds = %56, %50
  call void @llvm.lifetime.end.p0(i64 8, ptr %22) #4
  %58 = load i32, ptr %23, align 4
  switch i32 %58, label %194 [
    i32 0, label %59
  ]

59:                                               ; preds = %57
  br label %60

60:                                               ; preds = %59
  %61 = load i32, ptr %17, align 4, !tbaa !4
  %62 = add nsw i32 %61, 1
  store i32 %62, ptr %17, align 4, !tbaa !4
  br label %35, !llvm.loop !38

63:                                               ; preds = %35
  br label %64

64:                                               ; preds = %63, %31
  %65 = call ptr @X509_STORE_CTX_new()
  store ptr %65, ptr %19, align 8, !tbaa !34
  %66 = load ptr, ptr %19, align 8, !tbaa !34
  %67 = icmp eq ptr %66, null
  br i1 %67, label %68, label %78

68:                                               ; preds = %64
  %69 = load ptr, ptr @bio_err, align 8, !tbaa !25
  %70 = load ptr, ptr %10, align 8, !tbaa !23
  %71 = icmp eq ptr %70, null
  br i1 %71, label %72, label %73

72:                                               ; preds = %68
  br label %75

73:                                               ; preds = %68
  %74 = load ptr, ptr %10, align 8, !tbaa !23
  br label %75

75:                                               ; preds = %73, %72
  %76 = phi ptr [ @.str.118, %72 ], [ %74, %73 ]
  %77 = call i32 (ptr, ptr, ...) @BIO_printf(ptr noundef %69, ptr noundef @.str.117, ptr noundef %76)
  br label %186

78:                                               ; preds = %64
  %79 = load ptr, ptr %9, align 8, !tbaa !19
  %80 = load i32, ptr @vflags, align 4, !tbaa !4
  %81 = sext i32 %80 to i64
  %82 = call i32 @X509_STORE_set_flags(ptr noundef %79, i64 noundef %81)
  %83 = load ptr, ptr %19, align 8, !tbaa !34
  %84 = load ptr, ptr %9, align 8, !tbaa !19
  %85 = load ptr, ptr %16, align 8, !tbaa !36
  %86 = load ptr, ptr %11, align 8, !tbaa !13
  %87 = call i32 @X509_STORE_CTX_init(ptr noundef %83, ptr noundef %84, ptr noundef %85, ptr noundef %86)
  %88 = icmp ne i32 %87, 0
  br i1 %88, label %100, label %89

89:                                               ; preds = %78
  %90 = load ptr, ptr %19, align 8, !tbaa !34
  call void @X509_STORE_CTX_free(ptr noundef %90)
  %91 = load ptr, ptr @bio_err, align 8, !tbaa !25
  %92 = load ptr, ptr %10, align 8, !tbaa !23
  %93 = icmp eq ptr %92, null
  br i1 %93, label %94, label %95

94:                                               ; preds = %89
  br label %97

95:                                               ; preds = %89
  %96 = load ptr, ptr %10, align 8, !tbaa !23
  br label %97

97:                                               ; preds = %95, %94
  %98 = phi ptr [ @.str.118, %94 ], [ %96, %95 ]
  %99 = call i32 (ptr, ptr, ...) @BIO_printf(ptr noundef %91, ptr noundef @.str.119, ptr noundef %98)
  br label %186

100:                                              ; preds = %78
  %101 = load ptr, ptr %12, align 8, !tbaa !13
  %102 = icmp ne ptr %101, null
  br i1 %102, label %103, label %106

103:                                              ; preds = %100
  %104 = load ptr, ptr %19, align 8, !tbaa !34
  %105 = load ptr, ptr %12, align 8, !tbaa !13
  call void @X509_STORE_CTX_set0_trusted_stack(ptr noundef %104, ptr noundef %105)
  br label %106

106:                                              ; preds = %103, %100
  %107 = load ptr, ptr %13, align 8, !tbaa !15
  %108 = icmp ne ptr %107, null
  br i1 %108, label %109, label %112

109:                                              ; preds = %106
  %110 = load ptr, ptr %19, align 8, !tbaa !34
  %111 = load ptr, ptr %13, align 8, !tbaa !15
  call void @X509_STORE_CTX_set0_crls(ptr noundef %110, ptr noundef %111)
  br label %112

112:                                              ; preds = %109, %106
  %113 = load ptr, ptr %19, align 8, !tbaa !34
  %114 = call i32 @X509_verify_cert(ptr noundef %113)
  store i32 %114, ptr %17, align 4, !tbaa !4
  %115 = load i32, ptr %17, align 4, !tbaa !4
  %116 = icmp sgt i32 %115, 0
  br i1 %116, label %117, label %174

117:                                              ; preds = %112
  %118 = load ptr, ptr %19, align 8, !tbaa !34
  %119 = call i32 @X509_STORE_CTX_get_error(ptr noundef %118)
  %120 = icmp eq i32 %119, 0
  br i1 %120, label %121, label %174

121:                                              ; preds = %117
  %122 = load ptr, ptr @bio_out, align 8, !tbaa !25
  %123 = load ptr, ptr %10, align 8, !tbaa !23
  %124 = icmp eq ptr %123, null
  br i1 %124, label %125, label %126

125:                                              ; preds = %121
  br label %128

126:                                              ; preds = %121
  %127 = load ptr, ptr %10, align 8, !tbaa !23
  br label %128

128:                                              ; preds = %126, %125
  %129 = phi ptr [ @.str.118, %125 ], [ %127, %126 ]
  %130 = call i32 (ptr, ptr, ...) @BIO_printf(ptr noundef %122, ptr noundef @.str.120, ptr noundef %129)
  store i32 1, ptr %18, align 4, !tbaa !4
  %131 = load i32, ptr %14, align 4, !tbaa !4
  %132 = icmp ne i32 %131, 0
  br i1 %132, label %133, label %173

133:                                              ; preds = %128
  call void @llvm.lifetime.start.p0(i64 4, ptr %24) #4
  %134 = load ptr, ptr %19, align 8, !tbaa !34
  %135 = call ptr @X509_STORE_CTX_get1_chain(ptr noundef %134)
  store ptr %135, ptr %20, align 8, !tbaa !13
  %136 = load ptr, ptr %19, align 8, !tbaa !34
  %137 = call i32 @X509_STORE_CTX_get_num_untrusted(ptr noundef %136)
  store i32 %137, ptr %21, align 4, !tbaa !4
  %138 = load ptr, ptr @bio_out, align 8, !tbaa !25
  %139 = call i32 (ptr, ptr, ...) @BIO_printf(ptr noundef %138, ptr noundef @.str.121)
  store i32 0, ptr %24, align 4, !tbaa !4
  br label %140

140:                                              ; preds = %168, %133
  %141 = load i32, ptr %24, align 4, !tbaa !4
  %142 = load ptr, ptr %20, align 8, !tbaa !13
  %143 = call ptr @ossl_check_const_X509_sk_type(ptr noundef %142)
  %144 = call i32 @OPENSSL_sk_num(ptr noundef %143)
  %145 = icmp slt i32 %141, %144
  br i1 %145, label %146, label %171

146:                                              ; preds = %140
  call void @llvm.lifetime.start.p0(i64 8, ptr %25) #4
  %147 = load ptr, ptr %20, align 8, !tbaa !13
  %148 = call ptr @ossl_check_const_X509_sk_type(ptr noundef %147)
  %149 = load i32, ptr %24, align 4, !tbaa !4
  %150 = call ptr @OPENSSL_sk_value(ptr noundef %148, i32 noundef %149)
  store ptr %150, ptr %25, align 8, !tbaa !36
  %151 = load ptr, ptr @bio_out, align 8, !tbaa !25
  %152 = load i32, ptr %24, align 4, !tbaa !4
  %153 = call i32 (ptr, ptr, ...) @BIO_printf(ptr noundef %151, ptr noundef @.str.122, i32 noundef %152)
  %154 = load ptr, ptr @stdout, align 8, !tbaa !39
  %155 = load ptr, ptr %25, align 8, !tbaa !36
  %156 = call ptr @X509_get_subject_name(ptr noundef %155)
  %157 = call i64 @get_nameopt()
  %158 = call i32 @X509_NAME_print_ex_fp(ptr noundef %154, ptr noundef %156, i32 noundef 0, i64 noundef %157)
  %159 = load i32, ptr %24, align 4, !tbaa !4
  %160 = load i32, ptr %21, align 4, !tbaa !4
  %161 = icmp slt i32 %159, %160
  br i1 %161, label %162, label %165

162:                                              ; preds = %146
  %163 = load ptr, ptr @bio_out, align 8, !tbaa !25
  %164 = call i32 (ptr, ptr, ...) @BIO_printf(ptr noundef %163, ptr noundef @.str.123)
  br label %165

165:                                              ; preds = %162, %146
  %166 = load ptr, ptr @bio_out, align 8, !tbaa !25
  %167 = call i32 (ptr, ptr, ...) @BIO_printf(ptr noundef %166, ptr noundef @.str.124)
  call void @llvm.lifetime.end.p0(i64 8, ptr %25) #4
  br label %168

168:                                              ; preds = %165
  %169 = load i32, ptr %24, align 4, !tbaa !4
  %170 = add nsw i32 %169, 1
  store i32 %170, ptr %24, align 4, !tbaa !4
  br label %140, !llvm.loop !41

171:                                              ; preds = %140
  %172 = load ptr, ptr %20, align 8, !tbaa !13
  call void @OSSL_STACK_OF_X509_free(ptr noundef %172)
  call void @llvm.lifetime.end.p0(i64 4, ptr %24) #4
  br label %173

173:                                              ; preds = %171, %128
  br label %184

174:                                              ; preds = %117, %112
  %175 = load ptr, ptr @bio_err, align 8, !tbaa !25
  %176 = load ptr, ptr %10, align 8, !tbaa !23
  %177 = icmp eq ptr %176, null
  br i1 %177, label %178, label %179

178:                                              ; preds = %174
  br label %181

179:                                              ; preds = %174
  %180 = load ptr, ptr %10, align 8, !tbaa !23
  br label %181

181:                                              ; preds = %179, %178
  %182 = phi ptr [ @.str.118, %178 ], [ %180, %179 ]
  %183 = call i32 (ptr, ptr, ...) @BIO_printf(ptr noundef %175, ptr noundef @.str.125, ptr noundef %182)
  br label %184

184:                                              ; preds = %181, %173
  %185 = load ptr, ptr %19, align 8, !tbaa !34
  call void @X509_STORE_CTX_free(ptr noundef %185)
  br label %186

186:                                              ; preds = %184, %97, %75, %30
  %187 = load i32, ptr %17, align 4, !tbaa !4
  %188 = icmp sle i32 %187, 0
  br i1 %188, label %189, label %191

189:                                              ; preds = %186
  %190 = load ptr, ptr @bio_err, align 8, !tbaa !25
  call void @ERR_print_errors(ptr noundef %190)
  br label %191

191:                                              ; preds = %189, %186
  %192 = load ptr, ptr %16, align 8, !tbaa !36
  call void @X509_free(ptr noundef %192)
  %193 = load i32, ptr %18, align 4, !tbaa !4
  store i32 %193, ptr %8, align 4
  store i32 1, ptr %23, align 4
  br label %194

194:                                              ; preds = %191, %57
  call void @llvm.lifetime.end.p0(i64 4, ptr %21) #4
  call void @llvm.lifetime.end.p0(i64 8, ptr %20) #4
  call void @llvm.lifetime.end.p0(i64 8, ptr %19) #4
  call void @llvm.lifetime.end.p0(i64 4, ptr %18) #4
  call void @llvm.lifetime.end.p0(i64 4, ptr %17) #4
  call void @llvm.lifetime.end.p0(i64 8, ptr %16) #4
  %195 = load i32, ptr %8, align 4
  ret i32 %195
}