; Function Attrs: nounwind uwtable
define internal fastcc range(i32 0, 2) i32 @check(ptr noundef nonnull %0, ptr noundef %1, ptr noundef %2, ptr noundef %3, ptr noundef %4, i32 noundef range(i32 0, 2) %5, ptr noundef %6) unnamed_addr #0 {
  %8 = tail call ptr @load_cert_pass(ptr noundef %1, i32 noundef 0, i32 noundef 1, ptr noundef null, ptr noundef nonnull @.str.115) #3
  %9 = icmp eq ptr %8, null
  br i1 %9, label %.sink.split, label %10

10:                                               ; preds = %7
  %.not = icmp eq ptr %6, null
  br i1 %.not, label %.loopexit, label %.preheader

.preheader:                                       ; preds = %10
  %11 = tail call i32 @OPENSSL_sk_num(ptr noundef nonnull %6) #3
  %12 = icmp sgt i32 %11, 0
  br i1 %12, label %.lr.ph, label %.loopexit

.lr.ph:                                           ; preds = %.preheader, %.critedge
  %.25875 = phi i32 [ %19, %.critedge ], [ 0, %.preheader ]
  %13 = tail call ptr @OPENSSL_sk_value(ptr noundef nonnull %6, i32 noundef %.25875) #3
  %14 = tail call i32 @x509_ctrl_string(ptr noundef nonnull %8, ptr noundef %13) #3
  %15 = icmp sgt i32 %14, 0
  br i1 %15, label %.critedge, label %16

16:                                               ; preds = %.lr.ph
  %17 = load ptr, ptr @bio_err, align 8, !tbaa !13
  %18 = tail call i32 (ptr, ptr, ...) @BIO_printf(ptr noundef %17, ptr noundef nonnull @.str.116, ptr noundef %13) #3
  br label %.sink.split

.critedge:                                        ; preds = %.lr.ph
  %19 = add nuw nsw i32 %.25875, 1
  %20 = tail call i32 @OPENSSL_sk_num(ptr noundef nonnull %6) #3
  %21 = icmp slt i32 %19, %20
  br i1 %21, label %.lr.ph, label %.loopexit, !llvm.loop !20

.loopexit:                                        ; preds = %.critedge, %.preheader, %10
  %.157 = phi i32 [ 0, %10 ], [ 0, %.preheader ], [ %19, %.critedge ]
  %22 = tail call ptr @X509_STORE_CTX_new() #3
  %23 = icmp eq ptr %22, null
  br i1 %23, label %24, label %29

24:                                               ; preds = %.loopexit
  %25 = load ptr, ptr @bio_err, align 8, !tbaa !13
  %26 = icmp eq ptr %1, null
  %27 = select i1 %26, ptr @.str.118, ptr %1
  %28 = tail call i32 (ptr, ptr, ...) @BIO_printf(ptr noundef %25, ptr noundef nonnull @.str.117, ptr noundef nonnull %27) #3
  br label %82

29:                                               ; preds = %.loopexit
  %30 = tail call i32 @X509_STORE_set_flags(ptr noundef nonnull %0, i64 noundef 0) #3
  %31 = tail call i32 @X509_STORE_CTX_init(ptr noundef nonnull %22, ptr noundef nonnull %0, ptr noundef nonnull %8, ptr noundef %2) #3
  %.not66 = icmp eq i32 %31, 0
  br i1 %.not66, label %32, label %37

32:                                               ; preds = %29
  tail call void @X509_STORE_CTX_free(ptr noundef nonnull %22) #3
  %33 = load ptr, ptr @bio_err, align 8, !tbaa !13
  %34 = icmp eq ptr %1, null
  %35 = select i1 %34, ptr @.str.118, ptr %1
  %36 = tail call i32 (ptr, ptr, ...) @BIO_printf(ptr noundef %33, ptr noundef nonnull @.str.119, ptr noundef nonnull %35) #3
  br label %82

37:                                               ; preds = %29
  %.not67 = icmp eq ptr %3, null
  br i1 %.not67, label %39, label %38

38:                                               ; preds = %37
  tail call void @X509_STORE_CTX_set0_trusted_stack(ptr noundef nonnull %22, ptr noundef nonnull %3) #3
  br label %39

39:                                               ; preds = %38, %37
  %.not68 = icmp eq ptr %4, null
  br i1 %.not68, label %41, label %40

40:                                               ; preds = %39
  tail call void @X509_STORE_CTX_set0_crls(ptr noundef nonnull %22, ptr noundef nonnull %4) #3
  br label %41

41:                                               ; preds = %40, %39
  %42 = tail call i32 @X509_verify_cert(ptr noundef nonnull %22) #3
  %43 = icmp sgt i32 %42, 0
  br i1 %43, label %44, label %76

44:                                               ; preds = %41
  %45 = tail call i32 @X509_STORE_CTX_get_error(ptr noundef nonnull %22) #3
  %46 = icmp eq i32 %45, 0
  br i1 %46, label %47, label %76

47:                                               ; preds = %44
  %48 = load ptr, ptr @bio_out, align 8, !tbaa !13
  %49 = icmp eq ptr %1, null
  %50 = select i1 %49, ptr @.str.118, ptr %1
  %51 = tail call i32 (ptr, ptr, ...) @BIO_printf(ptr noundef %48, ptr noundef nonnull @.str.120, ptr noundef nonnull %50) #3
  %.not69 = icmp eq i32 %5, 0
  br i1 %.not69, label %81, label %52

52:                                               ; preds = %47
  %53 = tail call ptr @X509_STORE_CTX_get1_chain(ptr noundef nonnull %22) #3
  %54 = tail call i32 @X509_STORE_CTX_get_num_untrusted(ptr noundef nonnull %22) #3
  %55 = load ptr, ptr @bio_out, align 8, !tbaa !13
  %56 = tail call i32 (ptr, ptr, ...) @BIO_printf(ptr noundef %55, ptr noundef nonnull @.str.121) #3
  %57 = tail call i32 @OPENSSL_sk_num(ptr noundef %53) #3
  %58 = icmp sgt i32 %57, 0
  br i1 %58, label %.lr.ph77, label %._crit_edge

.lr.ph77:                                         ; preds = %52, %70
  %.05476 = phi i32 [ %73, %70 ], [ 0, %52 ]
  %59 = tail call ptr @OPENSSL_sk_value(ptr noundef %53, i32 noundef %.05476) #3
  %60 = load ptr, ptr @bio_out, align 8, !tbaa !13
  %61 = tail call i32 (ptr, ptr, ...) @BIO_printf(ptr noundef %60, ptr noundef nonnull @.str.122, i32 noundef %.05476) #3
  %62 = load ptr, ptr @stdout, align 8, !tbaa !21
  %63 = tail call ptr @X509_get_subject_name(ptr noundef %59) #3
  %64 = tail call i64 @get_nameopt() #3
  %65 = tail call i32 @X509_NAME_print_ex_fp(ptr noundef %62, ptr noundef %63, i32 noundef 0, i64 noundef %64) #3
  %66 = icmp slt i32 %.05476, %54
  br i1 %66, label %67, label %70

67:                                               ; preds = %.lr.ph77
  %68 = load ptr, ptr @bio_out, align 8, !tbaa !13
  %69 = tail call i32 (ptr, ptr, ...) @BIO_printf(ptr noundef %68, ptr noundef nonnull @.str.123) #3
  br label %70

70:                                               ; preds = %67, %.lr.ph77
  %71 = load ptr, ptr @bio_out, align 8, !tbaa !13
  %72 = tail call i32 (ptr, ptr, ...) @BIO_printf(ptr noundef %71, ptr noundef nonnull @.str.124) #3
  %73 = add nuw nsw i32 %.05476, 1
  %74 = tail call i32 @OPENSSL_sk_num(ptr noundef %53) #3
  %75 = icmp slt i32 %73, %74
  br i1 %75, label %.lr.ph77, label %._crit_edge, !llvm.loop !23

._crit_edge:                                      ; preds = %70, %52
  tail call void @OSSL_STACK_OF_X509_free(ptr noundef %53) #3
  br label %81

76:                                               ; preds = %44, %41
  %77 = load ptr, ptr @bio_err, align 8, !tbaa !13
  %78 = icmp eq ptr %1, null
  %79 = select i1 %78, ptr @.str.118, ptr %1
  %80 = tail call i32 (ptr, ptr, ...) @BIO_printf(ptr noundef %77, ptr noundef nonnull @.str.125, ptr noundef nonnull %79) #3
  br label %81

81:                                               ; preds = %47, %._crit_edge, %76
  %.160 = phi i32 [ 1, %._crit_edge ], [ 1, %47 ], [ 0, %76 ]
  tail call void @X509_STORE_CTX_free(ptr noundef nonnull %22) #3
  br label %82

82:                                               ; preds = %81, %32, %24
  %.059 = phi i32 [ 0, %24 ], [ %.160, %81 ], [ 0, %32 ]
  %.056 = phi i32 [ %.157, %24 ], [ %42, %81 ], [ %.157, %32 ]
  %83 = icmp slt i32 %.056, 1
  br i1 %83, label %.sink.split, label %85

.sink.split:                                      ; preds = %82, %7, %16
  %.2.ph = phi i32 [ 0, %16 ], [ %.059, %82 ], [ 0, %7 ]
  %84 = load ptr, ptr @bio_err, align 8, !tbaa !13
  tail call void @ERR_print_errors(ptr noundef %84) #3
  br label %85

85:                                               ; preds = %.sink.split, %82
  %.2 = phi i32 [ %.059, %82 ], [ %.2.ph, %.sink.split ]
  tail call void @X509_free(ptr noundef %8) #3
  ret i32 %.2
}